; Function Attrs: null_pointer_is_valid sspstrong uwtable
define internal fastcc range(i32 -2147483647, -2147483648) i32 @dissect_openflow_instruction_v4(ptr noundef %0, ptr noundef %1, ptr noundef %2, i32 noundef range(i32 -2147483648, 131069) %3) unnamed_addr #0 {
  %5 = tail call zeroext i16 @tvb_get_ntohs(ptr noundef %0, i32 noundef %3)
  %6 = add nsw i32 %3, 2
  %7 = tail call zeroext i16 @tvb_get_ntohs(ptr noundef %0, i32 noundef %6)
  %spec.store.select = tail call i16 @llvm.umax.i16(i16 %7, i16 8)
  %8 = zext i16 %spec.store.select to i32
  %9 = load i32, ptr @ett_openflow_v4_instruction, align 4
  %10 = tail call ptr @proto_tree_add_subtree(ptr noundef %2, ptr noundef %0, i32 noundef %3, i32 noundef %8, i32 noundef %9, ptr noundef null, ptr noundef nonnull @.str.1128)
  %11 = tail call zeroext i16 @tvb_get_ntohs(ptr noundef %0, i32 noundef range(i32 -2147483648, 196603) %3)
  %12 = load i32, ptr @hf_openflow_v4_instruction_type, align 4
  %13 = tail call ptr @proto_tree_add_item(ptr noundef %10, i32 noundef %12, ptr noundef %0, i32 noundef range(i32 -2147483648, 196603) %3, i32 noundef 2, i32 noundef 0)
  %14 = load i32, ptr @hf_openflow_v4_instruction_length, align 4
  %15 = tail call ptr @proto_tree_add_item(ptr noundef %10, i32 noundef %14, ptr noundef %0, i32 noundef %6, i32 noundef 2, i32 noundef 0)
  %16 = add nsw i32 %3, 4
  %17 = icmp eq i16 %11, -1
  br i1 %17, label %18, label %dissect_openflow_instruction_header_v4.exit

18:                                               ; preds = %4
  %19 = load i32, ptr @hf_openflow_v4_instruction_experimenter_experimenter, align 4
  %20 = tail call ptr @proto_tree_add_item(ptr noundef %10, i32 noundef %19, ptr noundef %0, i32 noundef %16, i32 noundef 4, i32 noundef 0)
  %21 = add nsw i32 %3, 8
  br label %dissect_openflow_instruction_header_v4.exit

dissect_openflow_instruction_header_v4.exit:      ; preds = %4, %18
  %.0.i = phi i32 [ %21, %18 ], [ %16, %4 ]
  switch i16 %5, label %56 [
    i16 1, label %22
    i16 2, label %29
    i16 3, label %39
    i16 4, label %39
    i16 5, label %39
    i16 6, label %48
    i16 -1, label %52
  ]

22:                                               ; preds = %dissect_openflow_instruction_header_v4.exit
  %23 = load i32, ptr @hf_openflow_v4_instruction_goto_table_table_id, align 4
  %24 = tail call ptr @proto_tree_add_item(ptr noundef %10, i32 noundef %23, ptr noundef %0, i32 noundef %.0.i, i32 noundef 1, i32 noundef 0)
  %25 = add nsw i32 %.0.i, 1
  %26 = load i32, ptr @hf_openflow_v4_instruction_goto_table_pad, align 4
  %27 = tail call ptr @proto_tree_add_item(ptr noundef %10, i32 noundef %26, ptr noundef %0, i32 noundef %25, i32 noundef 3, i32 noundef 0)
  %28 = add nsw i32 %.0.i, 4
  br label %.loopexit

29:                                               ; preds = %dissect_openflow_instruction_header_v4.exit
  %30 = load i32, ptr @hf_openflow_v4_instruction_write_metadata_pad, align 4
  %31 = tail call ptr @proto_tree_add_item(ptr noundef %10, i32 noundef %30, ptr noundef %0, i32 noundef %.0.i, i32 noundef 4, i32 noundef 0)
  %32 = add nsw i32 %.0.i, 4
  %33 = load i32, ptr @hf_openflow_v4_instruction_write_metadata_value, align 4
  %34 = tail call ptr @proto_tree_add_item(ptr noundef %10, i32 noundef %33, ptr noundef %0, i32 noundef %32, i32 noundef 8, i32 noundef 0)
  %35 = add nsw i32 %.0.i, 12
  %36 = load i32, ptr @hf_openflow_v4_instruction_write_metadata_mask, align 4
  %37 = tail call ptr @proto_tree_add_item(ptr noundef %10, i32 noundef %36, ptr noundef %0, i32 noundef %35, i32 noundef 8, i32 noundef 0)
  %38 = add nsw i32 %.0.i, 20
  br label %.loopexit

39:                                               ; preds = %dissect_openflow_instruction_header_v4.exit, %dissect_openflow_instruction_header_v4.exit, %dissect_openflow_instruction_header_v4.exit
  %40 = load i32, ptr @hf_openflow_v4_instruction_actions_pad, align 4
  %41 = tail call ptr @proto_tree_add_item(ptr noundef %10, i32 noundef %40, ptr noundef %0, i32 noundef %.0.i, i32 noundef 4, i32 noundef 0)
  %42 = add nsw i32 %.0.i, 4
  %43 = add nsw i32 %8, -8
  %44 = add nsw i32 %43, %42
  %45 = icmp ugt i16 %7, 8
  br i1 %45, label %.lr.ph, label %.loopexit

.lr.ph:                                           ; preds = %39, %.lr.ph
  %.166 = phi i32 [ %46, %.lr.ph ], [ %42, %39 ]
  %46 = tail call fastcc i32 @dissect_openflow_action_v4(ptr noundef %0, ptr noundef %1, ptr noundef %10, i32 noundef %.166)
  %47 = icmp slt i32 %46, %44
  br i1 %47, label %.lr.ph, label %.loopexit, !llvm.loop !31

48:                                               ; preds = %dissect_openflow_instruction_header_v4.exit
  %49 = load i32, ptr @hf_openflow_v4_instruction_meter_meter_id, align 4
  %50 = tail call ptr @proto_tree_add_item(ptr noundef %10, i32 noundef %49, ptr noundef %0, i32 noundef %.0.i, i32 noundef 4, i32 noundef 0)
  %51 = add nsw i32 %.0.i, 4
  br label %.loopexit

52:                                               ; preds = %dissect_openflow_instruction_header_v4.exit
  %53 = add nsw i32 %8, -8
  %54 = tail call ptr (ptr, ptr, ptr, ptr, i32, i32, ptr, ...) @proto_tree_add_expert_format(ptr noundef %10, ptr noundef %1, ptr noundef nonnull @ei_openflow_v4_instruction_undecoded, ptr noundef %0, i32 noundef %.0.i, i32 noundef %53, ptr noundef nonnull @.str.1129)
  %55 = add nsw i32 %.0.i, %53
  br label %.loopexit

56:                                               ; preds = %dissect_openflow_instruction_header_v4.exit
  %57 = add nsw i32 %8, -4
  %58 = tail call ptr (ptr, ptr, ptr, ptr, i32, i32, ptr, ...) @proto_tree_add_expert_format(ptr noundef %10, ptr noundef %1, ptr noundef nonnull @ei_openflow_v4_instruction_undecoded, ptr noundef %0, i32 noundef %.0.i, i32 noundef %57, ptr noundef nonnull @.str.761)
  %59 = add nsw i32 %.0.i, %57
  br label %.loopexit

.loopexit:                                        ; preds = %.lr.ph, %39, %56, %52, %48, %29, %22
  %.0 = phi i32 [ %59, %56 ], [ %55, %52 ], [ %51, %48 ], [ %38, %29 ], [ %28, %22 ], [ %42, %39 ], [ %46, %.lr.ph ]
  ret i32 %.0
}